Certificate:
    Data:
        Version: 3 (0x2)
        Serial Number: 10 (0xa)
    Signature Algorithm: sha512WithRSAEncryption
        Issuer: C=CA, ST=Ontario, L=Russell, O=MilleGrilles, OU=Signature, CN=millegrilles.com
        Validity
            Not Before: Jan  5 18:36:15 2019 GMT
            Not After : Jan  6 18:36:15 2020 GMT
        Subject: C=CA, ST=Ontario, L=Russell, O=Millegrilles, CN=dev1
        Subject Public Key Info:
            Public Key Algorithm: rsaEncryption
                Public-Key: (4096 bit)
                Modulus:
                    00:b2:53:32:70:ec:8a:15:11:99:6e:2f:c4:6a:f4:
                    8b:7a:55:55:5c:f7:d9:9f:de:e4:98:89:8c:1d:fe:
                    5d:2f:95:ac:a0:ba:9f:3a:46:44:fe:eb:e8:ad:2e:
                    aa:e9:d1:7c:60:75:a5:a4:2b:d7:cf:a0:e4:71:48:
                    03:b9:5e:18:4c:86:dd:c9:7c:fe:da:44:e4:a0:c7:
                    0c:d9:40:4a:e7:83:f8:a2:e5:7d:16:a2:30:33:59:
                    d9:ed:04:10:d9:b4:4d:89:91:7f:14:44:02:43:7f:
                    ff:fd:e0:a5:ef:4c:ee:81:8a:e3:db:b9:15:38:1b:
                    fd:e0:b2:ee:e0:70:05:b6:1a:5e:08:9b:41:65:38:
                    dc:2e:1e:35:09:7a:1c:7a:4a:8c:3e:a4:37:70:f4:
                    15:fb:e5:67:0b:75:3b:b9:b2:aa:c7:84:43:d6:b9:
                    f3:d8:61:38:30:60:d6:e2:71:61:12:08:3d:52:a9:
                    5d:d3:aa:fa:1c:16:15:3f:c9:27:26:a9:ed:ee:de:
                    48:51:75:81:d2:31:15:2c:0f:a5:d6:54:ff:d5:6c:
                    bb:a6:d7:e4:be:cd:38:6b:64:ac:b5:36:f3:37:67:
                    45:3d:15:d5:d0:c1:a3:69:fd:14:f8:d2:1d:67:4f:
                    b4:69:9a:ff:a2:bb:b2:09:7d:95:ee:23:e0:7a:91:
                    32:32:f7:db:84:c7:1a:30:cc:6d:25:eb:6d:6d:c4:
                    12:ee:db:e5:4b:93:07:40:c8:4c:fc:62:d9:71:39:
                    e9:97:f4:3d:06:93:a9:ab:a6:94:64:62:c9:e9:c0:
                    ec:ed:a6:61:c6:d6:be:52:b6:49:22:a5:c5:23:7e:
                    b5:2d:c1:0a:7a:8a:be:b9:94:e8:ec:9a:3e:95:7a:
                    38:16:c0:4d:e3:96:f0:ad:bc:9c:42:ca:bb:36:c9:
                    86:8c:e6:cc:c8:59:46:9f:ff:02:02:6f:63:5f:3d:
                    13:77:ca:b5:77:cd:06:ec:0b:77:35:01:74:11:85:
                    67:56:77:0a:a4:8b:d5:69:46:c6:ca:11:97:e3:8c:
                    5c:03:4f:43:a6:16:d5:22:ac:bb:87:7b:e0:e8:e2:
                    bf:66:0d:59:ec:6b:d8:25:02:69:1f:2e:f3:a4:b6:
                    2f:88:44:b2:59:90:d0:b8:c3:11:9f:e4:99:92:47:
                    29:71:1a:38:3e:ff:93:26:43:7c:28:a8:fe:da:96:
                    28:aa:a8:f2:65:d8:9f:da:50:70:bc:00:7d:68:63:
                    13:d7:f8:49:89:cd:b6:88:1f:d7:64:0f:56:cc:37:
                    51:62:cc:5c:ce:d4:1f:50:5a:0e:7d:ea:11:70:89:
                    02:5e:8f:cf:f2:91:bb:c6:e4:d1:9a:9b:bd:74:35:
                    72:84:95
                Exponent: 65537 (0x10001)
        X509v3 extensions:
            X509v3 Subject Key Identifier: 
                AB:1D:B8:F5:31:EA:64:10:8A:DC:AF:2A:79:F8:07:AF:EC:47:79:C3
            X509v3 Authority Key Identifier: 
                keyid:97:AE:90:74:57:C2:5A:59:9B:52:E8:36:CD:9C:45:EC:C8:A2:1A:7C

            X509v3 Basic Constraints: 
                CA:FALSE
            X509v3 Key Usage: 
                Digital Signature, Key Encipherment
            X509v3 Subject Alternative Name: 
                DNS:dev1
            Netscape Comment: 
                OpenSSL Generated Certificate
    Signature Algorithm: sha512WithRSAEncryption
         03:9d:be:ae:1a:2e:49:37:ef:85:69:e2:29:cb:d2:a6:25:c8:
         58:38:1c:83:4b:38:b0:1e:e5:a9:02:67:66:18:17:82:5f:ec:
         34:23:d0:0b:c7:ce:be:55:be:37:21:5d:40:c8:c9:03:ff:a4:
         b3:73:79:64:6a:4b:e3:f2:ce:bf:d2:c9:a3:a3:cd:92:ca:44:
         23:60:1a:25:dd:96:92:8d:de:98:df:f7:08:2b:a5:f2:f0:0a:
         0a:a6:1d:63:30:a0:7d:88:4e:f3:d4:01:0c:d9:a3:c2:e8:ba:
         cc:d4:70:cb:c3:7d:e6:98:9c:c8:63:ee:7d:eb:a5:15:de:e2:
         69:f8:8b:34:bd:3a:6a:5e:ec:3a:cb:3d:8f:e3:7c:50:f2:50:
         5b:56:94:03:05:b6:e9:23:c3:69:cc:4e:3e:9b:e4:c8:e5:c4:
         cc:ce:f6:23:68:26:d4:c6:ac:6d:d7:26:aa:89:d5:42:c6:54:
         2d:07:ae:13:e2:52:5e:c9:1a:28:24:e6:a5:e5:de:b0:96:d2:
         1b:b2:65:59:b9:81:7f:7d:d6:f5:b5:fe:e9:42:a9:7f:fa:61:
         62:45:02:af:a0:2f:a3:18:1f:c0:a8:4a:1d:d8:be:aa:3a:4b:
         32:7c:49:1a:83:42:b0:57:f9:91:88:10:42:1a:d5:99:86:0b:
         73:66:4d:93:d6:5b:39:84:6a:55:ab:50:0d:88:5e:ef:22:0d:
         48:7b:bd:bc:60:8e:e8:26:e5:53:0a:b3:76:6c:16:c0:d2:d6:
         49:a3:b6:78:97:2d:81:46:aa:de:0f:dc:70:92:ea:64:a2:e6:
         28:58:53:9c:fb:a8:fa:ca:dc:81:d5:07:a2:de:70:06:c7:55:
         d0:01:83:03:03:0d:d3:b6:16:d3:de:20:53:a0:5c:2c:93:fe:
         53:bb:01:92:27:66:40:7a:a1:0c:30:4f:33:7b:8d:29:68:12:
         9f:88:3e:74:7a:1d:03:4d:44:9d:15:49:ab:7a:2d:0d:b9:a7:
         19:82:f8:54:b3:fd:2c:51:c5:3e:39:8d:df:dc:99:ad:ea:e7:
         f7:b6:bb:19:a4:d8:0a:3d:16:52:4a:06:0f:4d:72:dc:1c:e2:
         0b:60:13:b8:31:58:17:5b:60:e1:41:78:f6:7d:a9:15:08:49:
         82:27:ac:3d:5d:51:91:e0:d3:d0:38:89:56:78:38:68:72:11:
         68:33:27:e2:e9:9d:84:2c:a3:d7:71:b8:de:52:ad:a5:6d:65:
         41:08:d9:9a:55:d9:e2:06:a5:40:a8:61:ae:a5:e0:02:b4:28:
         51:e3:06:45:cd:c0:a7:fa:e8:8c:2a:20:b7:5e:e6:0b:63:f5:
         49:20:f5:20:ee:ba:6c:99:b6:6a:fc:ae:0a:3f:cc:70:89:3b:
         f5:97:76:9d:60:05:d4:23:29:19:d1:2e:b1:04:f2:b9:86:1c:
         3d:d0:3a:25:d8:ed:bb:ed:e9:0e:82:cd:14:39:27:ab:bb:f0:
         6f:e7:24:ad:a9:8d:e7:17:a3:00:d6:ab:cf:91:25:9f:ae:51:
         4a:5a:76:be:88:6f:65:b2:ce:30:b6:c4:01:b6:68:70:a9:73:
         19:2d:c7:ba:94:b5:06:0e:1d:26:b6:e9:d1:e3:c1:55:e4:97:
         d8:af:2d:6d:e7:43:96:cf:48:0a:9b:22:21:31:aa:1d:54:2f:
         d6:80:31:79:83:e8:75:c2:93:ee:e2:e6:da:0d:3e:5d:5f:0e:
         e5:a3:bd:b2:e4:b1:b2:13:9f:21:f9:7e:63:1b:81:c6:51:b2:
         0d:4a:00:3d:e4:58:ff:ca:01:c6:ee:30:32:b8:db:60:c0:db:
         fd:5e:64:d8:fd:33:a2:0b:04:68:be:52:99:03:62:cd:53:af:
         70:c4:4d:40:74:35:d4:b0:d3:14:80:28:90:6b:90:57:23:51:
         43:f8:4b:d9:81:26:69:3d:1e:1e:d7:d3:47:a2:00:a5:f3:b7:
         71:a1:02:7e:c1:a8:f6:9c:81:a1:f6:4a:f6:72:f5:02:77:b9:
         cd:ec:63:63:4c:1c:02:0d:26:27:16:b5:62:76:6e:ec:88:f4:
         20:7b:50:b0:0b:9f:4c:7a:29:a4:56:ca:a4:e9:e8:39:bc:b6:
         f1:d9:d6:bf:2a:b7:ad:94:e7:dd:f4:7c:1d:d7:cb:3b:25:fa:
         eb:33:af:10:f3:9f:4f:23:99:b1:7b:04:ca:59:44:37:04:51:
         4b:5f:21:80:66:f7:22:1a:21:33:89:d3:2b:d6:20:ec:6a:1c:
         a9:77:56:45:1b:b8:7f:81:e0:47:66:1b:3e:46:fb:2f:bb:2d:
         07:61:8e:2a:64:64:c1:ad:32:06:8d:c0:30:15:07:cc:f6:6e:
         43:79:a9:ef:20:cd:01:bd:c0:be:27:61:2c:1b:25:ad:90:bc:
         02:ed:47:d2:7e:82:fd:70:53:33:46:f7:3e:2a:71:5f:e2:5b:
         cf:68:a8:13:73:c3:75:c0:c5:bf:b9:15:2d:ac:cb:c8:24:c5:
         ec:f4:97:c6:d8:d4:63:17:f8:86:dc:e9:00:3b:03:ac:c2:34:
         78:52:12:0d:66:26:7f:07:d5:f1:c8:a7:0d:73:b1:1d:82:3b:
         32:bf:9b:96:cd:f7:fb:81:75:e0:43:45:5a:6d:69:d1:ac:fa:
         aa:a7:db:c8:63:94:f8:ee:6a:fa:ba:79:2b:05:2c:a0:8d:d4:
         61:87:17:57:7d:d7:8b:ff:66:38:d5:d7:2a:5c:50:a2
-----BEGIN CERTIFICATE-----
MIIH5DCCA8ygAwIBAgIBCjANBgkqhkiG9w0BAQ0FADB3MQswCQYDVQQGEwJDQTEQ
MA4GA1UECAwHT250YXJpbzEQMA4GA1UEBwwHUnVzc2VsbDEVMBMGA1UECgwMTWls
bGVHcmlsbGVzMRIwEAYDVQQLDAlTaWduYXR1cmUxGTAXBgNVBAMMEG1pbGxlZ3Jp
bGxlcy5jb20wHhcNMTkwMTA1MTgzNjE1WhcNMjAwMTA2MTgzNjE1WjBXMQswCQYD
VQQGEwJDQTEQMA4GA1UECAwHT250YXJpbzEQMA4GA1UEBwwHUnVzc2VsbDEVMBMG
A1UECgwMTWlsbGVncmlsbGVzMQ0wCwYDVQQDDARkZXYxMIICIjANBgkqhkiG9w0B
AQEFAAOCAg8AMIICCgKCAgEAslMycOyKFRGZbi/EavSLelVVXPfZn97kmImMHf5d
L5WsoLqfOkZE/uvorS6q6dF8YHWlpCvXz6DkcUgDuV4YTIbdyXz+2kTkoMcM2UBK
54P4ouV9FqIwM1nZ7QQQ2bRNiZF/FEQCQ3///eCl70zugYrj27kVOBv94LLu4HAF
thpeCJtBZTjcLh41CXocekqMPqQ3cPQV++VnC3U7ubKqx4RD1rnz2GE4MGDW4nFh
Egg9Uqld06r6HBYVP8knJqnt7t5IUXWB0jEVLA+l1lT/1Wy7ptfkvs04a2SstTbz
N2dFPRXV0MGjaf0U+NIdZ0+0aZr/oruyCX2V7iPgepEyMvfbhMcaMMxtJettbcQS
7tvlS5MHQMhM/GLZcTnpl/Q9BpOpq6aUZGLJ6cDs7aZhxta+UrZJIqXFI361LcEK
eoq+uZTo7Jo+lXo4FsBN45bwrbycQsq7NsmGjObMyFlGn/8CAm9jXz0Td8q1d80G
7At3NQF0EYVnVncKpIvVaUbGyhGX44xcA09DphbVIqy7h3vg6OK/Zg1Z7GvYJQJp
Hy7zpLYviESyWZDQuMMRn+SZkkcpcRo4Pv+TJkN8KKj+2pYoqqjyZdif2lBwvAB9
aGMT1/hJic22iB/XZA9WzDdRYsxcztQfUFoOfeoRcIkCXo/P8pG7xuTRmpu9dDVy
hJUCAwEAAaOBmjCBlzAdBgNVHQ4EFgQUqx249THqZBCK3K8qefgHr+xHecMwHwYD
VR0jBBgwFoAUl66QdFfCWlmbUug2zZxF7MiiGnwwCQYDVR0TBAIwADALBgNVHQ8E
BAMCBaAwDwYDVR0RBAgwBoIEZGV2MTAsBglghkgBhvhCAQ0EHxYdT3BlblNTTCBH
ZW5lcmF0ZWQgQ2VydGlmaWNhdGUwDQYJKoZIhvcNAQENBQADggQBAAOdvq4aLkk3
74Vp4inL0qYlyFg4HINLOLAe5akCZ2YYF4Jf7DQj0AvHzr5VvjchXUDIyQP/pLNz
eWRqS+Pyzr/SyaOjzZLKRCNgGiXdlpKN3pjf9wgrpfLwCgqmHWMwoH2ITvPUAQzZ
o8LouszUcMvDfeaYnMhj7n3rpRXe4mn4izS9Ompe7DrLPY/jfFDyUFtWlAMFtukj
w2nMTj6b5MjlxMzO9iNoJtTGrG3XJqqJ1ULGVC0HrhPiUl7JGigk5qXl3rCW0huy
ZVm5gX991vW1/ulCqX/6YWJFAq+gL6MYH8CoSh3Yvqo6SzJ8SRqDQrBX+ZGIEEIa
1ZmGC3NmTZPWWzmEalWrUA2IXu8iDUh7vbxgjugm5VMKs3ZsFsDS1kmjtniXLYFG
qt4P3HCS6mSi5ihYU5z7qPrK3IHVB6LecAbHVdABgwMDDdO2FtPeIFOgXCyT/lO7
AZInZkB6oQwwTzN7jSloEp+IPnR6HQNNRJ0VSat6LQ25pxmC+FSz/SxRxT45jd/c
ma3q5/e2uxmk2Ao9FlJKBg9Nctwc4gtgE7gxWBdbYOFBePZ9qRUISYInrD1dUZHg
09A4iVZ4OGhyEWgzJ+LpnYQso9dxuN5SraVtZUEI2ZpV2eIGpUCoYa6l4AK0KFHj
BkXNwKf66IwqILde5gtj9Ukg9SDuumyZtmr8rgo/zHCJO/WXdp1gBdQjKRnRLrEE
8rmGHD3QOiXY7bvt6Q6CzRQ5J6u78G/nJK2pjecXowDWq8+RJZ+uUUpadr6Ib2Wy
zjC2xAG2aHCpcxktx7qUtQYOHSa26dHjwVXkl9ivLW3nQ5bPSAqbIiExqh1UL9aA
MXmD6HXCk+7i5toNPl1fDuWjvbLksbITnyH5fmMbgcZRsg1KAD3kWP/KAcbuMDK4
22DA2/1eZNj9M6ILBGi+UpkDYs1Tr3DETUB0NdSw0xSAKJBrkFcjUUP4S9mBJmk9
Hh7X00eiAKXzt3GhAn7BqPacgaH2SvZy9QJ3uc3sY2NMHAINJicWtWJ2buyI9CB7
ULALn0x6KaRWyqTp6Dm8tvHZ1r8qt62U5930fB3Xyzsl+uszrxDzn08jmbF7BMpZ
RDcEUUtfIYBm9yIaITOJ0yvWIOxqHKl3VkUbuH+B4EdmGz5G+y+7LQdhjipkZMGt
MgaNwDAVB8z2bkN5qe8gzQG9wL4nYSwbJa2QvALtR9J+gv1wUzNG9z4qcV/iW89o
qBNzw3XAxb+5FS2sy8gkxez0l8bY1GMX+Ibc6QA7A6zCNHhSEg1mJn8H1fHIpw1z
sR2COzK/m5bN9/uBdeBDRVptadGs+qqn28hjlPjuavq6eSsFLKCN1GGHF1d914v/
ZjjV1ypcUKI=
-----END CERTIFICATE-----
