Certificate:
    Data:
        Version: 3 (0x2)
        Serial Number: 11 (0xb)
    Signature Algorithm: sha512WithRSAEncryption
        Issuer: C=CA, ST=Ontario, L=Russell, O=MilleGrilles, OU=Signature, CN=millegrilles.com
        Validity
            Not Before: Jan  5 18:36:24 2019 GMT
            Not After : Jan  6 18:36:24 2020 GMT
        Subject: C=CA, ST=Ontario, L=Russell, O=Millegrilles, CN=dev2
        Subject Public Key Info:
            Public Key Algorithm: rsaEncryption
                Public-Key: (4096 bit)
                Modulus:
                    00:bb:b3:08:3f:a7:47:e8:03:e3:51:6a:4a:c5:2c:
                    43:41:fc:cc:05:4e:10:86:25:ff:a4:13:6a:e6:6a:
                    1f:cb:99:b3:4a:6c:44:c7:22:c8:75:ae:f0:a7:45:
                    35:2b:68:72:64:ad:94:0c:ee:83:8a:6c:fb:f3:4c:
                    25:cb:02:60:e9:bc:2d:a2:2c:48:8d:02:54:2e:dd:
                    64:1d:3b:4e:b4:ab:11:5d:92:93:d2:6d:7e:f5:3b:
                    30:39:d6:43:3c:7a:ca:14:db:70:bb:97:13:28:2d:
                    6d:87:69:7e:dc:a9:99:b3:67:52:88:1f:90:dd:85:
                    b0:2d:7b:7f:e9:f4:ce:24:33:a0:a5:2a:e7:aa:24:
                    2b:12:b5:3b:7c:0c:75:bc:d2:15:2b:3e:82:24:14:
                    7e:05:b0:19:55:38:e3:12:99:77:85:5e:db:ab:38:
                    92:a8:ed:0c:45:a5:18:f4:59:d8:08:d3:c7:be:3b:
                    6e:e8:70:38:42:16:c5:59:af:45:d0:5a:d0:4c:71:
                    9c:5a:93:0c:de:09:02:dd:bd:0c:d5:fd:1f:76:c3:
                    eb:d5:d9:03:eb:dd:06:08:90:67:91:9a:e1:95:d2:
                    84:2d:d8:6d:5e:61:e1:c3:41:24:64:0e:5b:b7:51:
                    b1:b5:7f:ba:d2:03:ed:3e:09:83:48:6e:86:d1:4a:
                    e1:1f:2b:bb:4f:ba:42:05:c6:bb:98:ea:67:5b:d3:
                    1d:ca:7e:ab:13:d9:9d:ed:2d:4d:a3:d4:73:21:f0:
                    e9:25:67:3d:77:0e:d5:4a:8a:96:5d:ac:07:40:d7:
                    19:af:a7:61:9f:ee:bc:a0:90:9d:e7:d1:ee:0d:54:
                    93:61:50:9e:68:dd:1e:90:87:4e:d1:ba:c8:2c:20:
                    75:4a:d2:22:ad:03:57:31:11:67:b5:4f:1f:9e:f0:
                    a3:1c:22:82:d2:9a:30:ef:3f:40:9f:35:03:8c:f0:
                    f1:0a:ed:00:f9:d6:55:2b:35:2a:2d:59:ab:0d:01:
                    09:6a:30:ea:f0:fe:35:90:7f:89:4b:ff:8c:94:87:
                    66:ac:68:7d:2e:16:d8:f2:3d:63:21:9f:1b:3b:10:
                    95:36:86:1c:c3:c6:fa:e4:25:4f:c3:d0:61:10:34:
                    84:98:bb:76:cf:74:2e:56:7e:27:17:2f:36:93:a9:
                    2d:f4:16:a0:d6:2f:e1:c3:f3:75:4e:e9:72:07:3f:
                    8e:1b:cf:1c:b6:6a:bc:80:f6:b8:e2:68:6a:84:0c:
                    1e:e2:4b:2c:a6:f9:9d:11:4e:1e:0a:c3:0c:9d:e0:
                    47:1a:a8:f8:9c:d4:42:e3:1b:38:81:46:7a:3e:a4:
                    68:6f:b3:5f:e7:fb:a5:d4:0c:d7:33:ac:dd:d2:f8:
                    d2:43:a9
                Exponent: 65537 (0x10001)
        X509v3 extensions:
            X509v3 Subject Key Identifier: 
                49:6F:D3:6D:61:76:07:06:79:B1:74:3B:DA:91:EF:2A:BA:A9:67:D8
            X509v3 Authority Key Identifier: 
                keyid:97:AE:90:74:57:C2:5A:59:9B:52:E8:36:CD:9C:45:EC:C8:A2:1A:7C

            X509v3 Basic Constraints: 
                CA:FALSE
            X509v3 Key Usage: 
                Digital Signature, Key Encipherment
            X509v3 Subject Alternative Name: 
                DNS:dev2
            Netscape Comment: 
                OpenSSL Generated Certificate
    Signature Algorithm: sha512WithRSAEncryption
         25:2c:09:26:f6:a3:5e:b5:23:7a:5a:e5:4c:30:41:2d:47:d1:
         26:02:c8:0b:14:d0:82:60:aa:75:b1:71:d1:bf:91:26:03:53:
         89:09:1e:07:30:38:23:f1:78:df:b0:e3:47:01:fc:b5:a0:bb:
         1d:67:d8:6a:f6:e2:d9:fc:de:86:da:ea:48:bf:93:13:a2:72:
         08:75:b7:41:91:29:13:f2:62:ea:1d:1c:a9:5c:f3:4a:79:e6:
         46:91:05:f6:53:17:cb:ac:2f:bc:f8:9b:62:16:31:2c:06:e7:
         e5:29:92:a8:b3:b2:1e:f4:f8:97:4a:2e:32:4d:6b:d6:77:e8:
         5f:a2:ba:aa:a5:a6:15:0b:22:a4:02:e3:84:52:c7:31:a4:e9:
         92:1e:e8:54:4e:d0:48:4b:23:f5:7d:ee:cf:eb:09:03:fa:f4:
         c6:59:29:08:27:e6:7e:54:4e:25:03:a7:ed:09:5d:ff:db:95:
         00:b5:ec:fb:e3:63:c0:81:2f:e1:59:58:4b:2d:74:45:e9:9a:
         fd:68:9b:07:62:44:95:a3:f0:dd:0b:3f:61:32:f7:e7:d6:a0:
         ca:e5:21:28:2c:70:ef:8e:58:05:bb:c5:7d:72:20:f8:86:ad:
         9a:c3:33:a1:38:03:61:de:0f:0b:14:f2:bb:18:10:ef:37:5f:
         c6:11:d1:30:26:e8:dc:99:02:94:14:00:7a:96:98:5e:04:56:
         67:bd:b4:8e:e7:0c:2b:c4:ec:3a:f8:47:e1:d1:48:93:7d:f1:
         0a:28:93:c6:39:ab:c0:c3:38:a3:d0:0c:00:65:10:9a:c3:38:
         44:50:6f:8d:52:37:ed:78:37:b4:28:29:09:39:61:e9:76:0f:
         18:93:b7:e3:94:b7:cd:9d:81:0f:60:3f:e0:1a:7c:48:2c:8f:
         72:37:96:04:9a:47:c8:85:fe:59:0e:83:2e:59:24:71:70:1f:
         b4:59:98:ca:0c:c6:61:73:cd:84:98:a8:c9:79:b4:63:6a:da:
         8c:b5:6b:d3:57:65:e1:bd:2a:2d:48:f6:20:84:91:ab:2e:b5:
         1d:a9:4b:8a:b8:9e:b5:eb:73:cc:31:bc:16:77:14:3a:30:6a:
         db:1a:36:24:dc:7b:88:5d:1b:c2:8e:d2:a0:27:46:28:d7:04:
         34:f9:e1:be:74:d6:03:ce:c2:69:6f:29:cb:18:94:f3:5a:ad:
         e7:cb:a9:60:3a:d3:b7:9e:25:98:a0:70:d2:05:ed:3f:c7:05:
         a2:10:7f:03:4d:d3:b0:dc:e4:d3:73:03:59:05:0b:82:d0:48:
         56:b2:49:98:69:89:74:cf:38:39:ab:13:b7:1d:3c:1a:71:20:
         91:05:10:d7:fb:27:9f:a4:7f:5f:88:30:70:ff:d2:25:67:91:
         ca:d8:3a:fe:c7:88:6e:63:55:db:cb:a4:7b:a4:65:dc:c0:77:
         5b:85:57:c1:96:95:ef:6e:b7:d4:11:ec:44:e4:91:49:09:11:
         3e:d2:92:a6:a7:9d:68:d5:e9:97:9b:0f:f3:93:0f:d2:8a:c2:
         a9:1c:67:e7:4d:aa:ab:e8:45:bf:fa:18:dc:27:8f:75:da:b3:
         ed:16:03:05:7b:89:dd:11:45:20:a7:23:db:d5:fa:4b:74:ca:
         a6:85:03:b2:58:b5:27:db:e0:b9:2c:37:32:ac:61:ae:09:95:
         85:7b:d0:ee:c2:7b:40:b8:5f:c8:c6:69:13:8e:e2:54:69:22:
         bd:c9:23:3d:a1:14:01:7b:27:89:96:c9:ad:72:77:bc:ad:69:
         ab:65:56:25:fa:61:5a:0b:45:24:a6:aa:16:9a:b1:97:86:85:
         48:2f:b8:22:29:b4:51:a0:a9:ee:b8:9d:a5:b0:4d:e7:8a:e1:
         d1:cb:99:c1:ba:8c:3a:55:9a:66:75:3c:51:2a:83:b2:b0:9b:
         10:9c:e3:21:a0:fd:3c:fb:fa:b8:83:1a:ac:67:72:35:49:69:
         56:3e:02:63:06:da:8d:8f:c7:d4:70:54:73:57:f6:a5:c8:2b:
         03:22:83:2c:bf:45:8d:c3:53:2b:c3:34:a9:77:d1:e4:c3:15:
         9e:31:69:bc:b4:3e:d5:67:4a:ef:1c:5b:a4:20:f1:07:2a:c5:
         6f:a7:18:de:0e:29:65:78:1a:cb:59:b2:48:33:30:f9:52:8b:
         4d:2c:83:49:38:cf:a2:37:24:8c:27:21:31:bf:a0:09:7a:01:
         52:ce:69:88:6e:76:82:77:10:82:eb:e7:4a:8a:ea:f8:82:41:
         03:34:00:90:d7:11:7f:12:35:f9:c4:20:c2:2c:5d:8a:a3:89:
         31:0f:2f:03:ef:26:96:68:72:6f:a1:d4:42:58:32:c0:47:a2:
         bf:81:39:6f:3f:70:f8:88:9d:5c:d9:4c:da:5e:5d:e8:f9:a5:
         37:21:3b:f7:8d:5a:d5:63:fb:1b:f2:32:1d:4c:78:80:7b:7b:
         94:ef:18:fc:e1:9a:ef:ab:f4:3d:38:cd:64:b8:31:79:6e:6f:
         e2:80:4a:26:1f:fb:b4:d6:a3:ff:04:b3:03:9a:f4:f0:fa:af:
         ae:59:34:7b:e9:31:d8:33:b3:08:e1:f4:a4:eb:7a:67:46:9e:
         85:bf:5b:c2:b8:82:e7:19:ca:68:45:41:4f:1f:e0:e4:aa:1c:
         20:21:ff:79:a0:cc:23:45:3f:e2:ca:25:c1:67:b5:c4:b7:ac:
         3d:92:9b:6b:fe:d7:a0:58:d9:55:fa:62:83:6b:19:1e
-----BEGIN CERTIFICATE-----
MIIH5DCCA8ygAwIBAgIBCzANBgkqhkiG9w0BAQ0FADB3MQswCQYDVQQGEwJDQTEQ
MA4GA1UECAwHT250YXJpbzEQMA4GA1UEBwwHUnVzc2VsbDEVMBMGA1UECgwMTWls
bGVHcmlsbGVzMRIwEAYDVQQLDAlTaWduYXR1cmUxGTAXBgNVBAMMEG1pbGxlZ3Jp
bGxlcy5jb20wHhcNMTkwMTA1MTgzNjI0WhcNMjAwMTA2MTgzNjI0WjBXMQswCQYD
VQQGEwJDQTEQMA4GA1UECAwHT250YXJpbzEQMA4GA1UEBwwHUnVzc2VsbDEVMBMG
A1UECgwMTWlsbGVncmlsbGVzMQ0wCwYDVQQDDARkZXYyMIICIjANBgkqhkiG9w0B
AQEFAAOCAg8AMIICCgKCAgEAu7MIP6dH6APjUWpKxSxDQfzMBU4QhiX/pBNq5mof
y5mzSmxExyLIda7wp0U1K2hyZK2UDO6Dimz780wlywJg6bwtoixIjQJULt1kHTtO
tKsRXZKT0m1+9TswOdZDPHrKFNtwu5cTKC1th2l+3KmZs2dSiB+Q3YWwLXt/6fTO
JDOgpSrnqiQrErU7fAx1vNIVKz6CJBR+BbAZVTjjEpl3hV7bqziSqO0MRaUY9FnY
CNPHvjtu6HA4QhbFWa9F0FrQTHGcWpMM3gkC3b0M1f0fdsPr1dkD690GCJBnkZrh
ldKELdhtXmHhw0EkZA5bt1GxtX+60gPtPgmDSG6G0UrhHyu7T7pCBca7mOpnW9Md
yn6rE9md7S1No9RzIfDpJWc9dw7VSoqWXawHQNcZr6dhn+68oJCd59HuDVSTYVCe
aN0ekIdO0brILCB1StIirQNXMRFntU8fnvCjHCKC0pow7z9AnzUDjPDxCu0A+dZV
KzUqLVmrDQEJajDq8P41kH+JS/+MlIdmrGh9LhbY8j1jIZ8bOxCVNoYcw8b65CVP
w9BhEDSEmLt2z3QuVn4nFy82k6kt9Bag1i/hw/N1TulyBz+OG88ctmq8gPa44mhq
hAwe4ksspvmdEU4eCsMMneBHGqj4nNRC4xs4gUZ6PqRob7Nf5/ul1AzXM6zd0vjS
Q6kCAwEAAaOBmjCBlzAdBgNVHQ4EFgQUSW/TbWF2BwZ5sXQ72pHvKrqpZ9gwHwYD
VR0jBBgwFoAUl66QdFfCWlmbUug2zZxF7MiiGnwwCQYDVR0TBAIwADALBgNVHQ8E
BAMCBaAwDwYDVR0RBAgwBoIEZGV2MjAsBglghkgBhvhCAQ0EHxYdT3BlblNTTCBH
ZW5lcmF0ZWQgQ2VydGlmaWNhdGUwDQYJKoZIhvcNAQENBQADggQBACUsCSb2o161
I3pa5UwwQS1H0SYCyAsU0IJgqnWxcdG/kSYDU4kJHgcwOCPxeN+w40cB/LWgux1n
2Gr24tn83oba6ki/kxOicgh1t0GRKRPyYuodHKlc80p55kaRBfZTF8usL7z4m2IW
MSwG5+Upkqizsh70+JdKLjJNa9Z36F+iuqqlphULIqQC44RSxzGk6ZIe6FRO0EhL
I/V97s/rCQP69MZZKQgn5n5UTiUDp+0JXf/blQC17PvjY8CBL+FZWEstdEXpmv1o
mwdiRJWj8N0LP2Ey9+fWoMrlISgscO+OWAW7xX1yIPiGrZrDM6E4A2HeDwsU8rsY
EO83X8YR0TAm6NyZApQUAHqWmF4EVme9tI7nDCvE7Dr4R+HRSJN98Qook8Y5q8DD
OKPQDABlEJrDOERQb41SN+14N7QoKQk5Yel2DxiTt+OUt82dgQ9gP+AafEgsj3I3
lgSaR8iF/lkOgy5ZJHFwH7RZmMoMxmFzzYSYqMl5tGNq2oy1a9NXZeG9Ki1I9iCE
kasutR2pS4q4nrXrc8wxvBZ3FDowatsaNiTce4hdG8KO0qAnRijXBDT54b501gPO
wmlvKcsYlPNarefLqWA607eeJZigcNIF7T/HBaIQfwNN07Dc5NNzA1kFC4LQSFay
SZhpiXTPODmrE7cdPBpxIJEFENf7J5+kf1+IMHD/0iVnkcrYOv7HiG5jVdvLpHuk
ZdzAd1uFV8GWle9ut9QR7ETkkUkJET7SkqannWjV6ZebD/OTD9KKwqkcZ+dNqqvo
Rb/6GNwnj3Xas+0WAwV7id0RRSCnI9vV+kt0yqaFA7JYtSfb4LksNzKsYa4JlYV7
0O7Ce0C4X8jGaROO4lRpIr3JIz2hFAF7J4mWya1yd7ytaatlViX6YVoLRSSmqhaa
sZeGhUgvuCIptFGgqe64naWwTeeK4dHLmcG6jDpVmmZ1PFEqg7KwmxCc4yGg/Tz7
+riDGqxncjVJaVY+AmMG2o2Px9RwVHNX9qXIKwMigyy/RY3DUyvDNKl30eTDFZ4x
aby0PtVnSu8cW6Qg8QcqxW+nGN4OKWV4GstZskgzMPlSi00sg0k4z6I3JIwnITG/
oAl6AVLOaYhudoJ3EILr50qK6viCQQM0AJDXEX8SNfnEIMIsXYqjiTEPLwPvJpZo
cm+h1EJYMsBHor+BOW8/cPiInVzZTNpeXej5pTchO/eNWtVj+xvyMh1MeIB7e5Tv
GPzhmu+r9D04zWS4MXlub+KASiYf+7TWo/8EswOa9PD6r65ZNHvpMdgzswjh9KTr
emdGnoW/W8K4gucZymhFQU8f4OSqHCAh/3mgzCNFP+LKJcFntcS3rD2Sm2v+16BY
2VX6YoNrGR4=
-----END CERTIFICATE-----
