Certificate:
    Data:
        Version: 3 (0x2)
        Serial Number: 12 (0xc)
    Signature Algorithm: sha512WithRSAEncryption
        Issuer: C=CA, ST=Ontario, L=Russell, O=MilleGrilles, OU=Signature, CN=millegrilles.com
        Validity
            Not Before: Jan  5 18:36:33 2019 GMT
            Not After : Jan  6 18:36:33 2020 GMT
        Subject: C=CA, ST=Ontario, L=Russell, O=Millegrilles, CN=dev3
        Subject Public Key Info:
            Public Key Algorithm: rsaEncryption
                Public-Key: (4096 bit)
                Modulus:
                    00:e1:4b:aa:0c:f4:b2:d8:24:7a:85:df:82:78:bc:
                    60:3f:d2:23:97:9a:21:8b:79:69:3a:24:2b:90:5a:
                    15:b3:a4:f2:cb:52:7c:84:41:cc:c6:02:64:39:cb:
                    21:df:2f:30:21:7d:c6:7d:16:ac:d5:aa:12:2e:c6:
                    95:65:7c:0e:df:ca:21:e8:73:84:c5:d6:e5:4a:b5:
                    26:96:05:9b:3d:ee:fc:a7:8a:4e:a2:06:6f:52:3d:
                    22:c9:67:b1:6f:ed:3f:86:79:c0:2b:6c:36:70:f7:
                    f9:90:8f:e8:78:4c:e7:91:a2:7b:6b:80:19:15:e5:
                    6b:be:5e:c6:3e:49:11:c8:af:ed:91:77:4c:47:b3:
                    6b:7e:d5:c6:62:2d:1e:24:01:f0:67:ce:6d:92:1b:
                    09:1c:fa:3b:a2:95:2b:8c:6a:6a:04:a9:2d:02:66:
                    9c:ed:91:27:86:21:51:c7:2e:0b:5b:53:1b:02:cf:
                    47:04:85:0a:0b:2e:8e:3b:5b:38:86:a9:88:56:8b:
                    24:70:e8:c2:7c:ec:70:34:54:cd:f0:32:90:31:75:
                    a6:e2:7c:9a:9d:77:26:07:2d:1e:4c:5b:b3:1e:6d:
                    7b:e6:bd:7d:da:5b:f4:d3:3d:c5:97:10:5d:7d:07:
                    78:5e:b1:d2:77:e9:e8:20:a1:ea:cf:a8:c9:2a:9f:
                    ae:71:da:9a:b1:f0:60:a1:f2:2c:ca:13:fb:ef:28:
                    51:b5:50:9e:90:90:d6:b8:a7:a8:ff:9f:38:0d:1b:
                    96:ac:3a:ca:0e:02:6e:cd:02:8c:cb:d3:cc:e4:c3:
                    af:4d:d7:86:c9:7e:f1:1e:20:1d:52:67:d2:10:10:
                    71:2b:82:90:79:45:fb:af:64:75:d0:cd:95:68:98:
                    08:df:a6:55:41:8e:cf:47:d9:87:e1:2e:e4:c8:62:
                    ad:ee:6d:88:2f:32:e2:13:b7:91:6d:92:61:db:6e:
                    f8:20:3e:b2:4f:4e:fd:5a:4c:ea:73:bf:08:3a:fb:
                    8d:97:59:67:6f:fb:a6:f5:2f:b8:97:45:5e:e4:df:
                    8c:a1:44:e3:03:97:28:a7:23:04:42:35:28:8e:4b:
                    a4:a5:51:96:52:91:5e:79:03:75:29:e6:43:bd:17:
                    22:ca:18:fb:c4:8c:9f:1e:5c:68:17:f2:f3:28:a9:
                    07:73:8b:09:6f:ec:1a:a0:ef:7c:f9:5a:ac:7d:7d:
                    2c:32:ba:f8:6d:b4:e5:91:ed:91:95:b2:6a:6d:74:
                    c2:95:c4:9c:4f:aa:15:8e:ca:4e:7d:b3:49:4a:95:
                    43:9d:e7:33:0b:1c:82:84:95:2c:7b:19:2b:14:af:
                    7b:46:5c:0f:e2:9d:10:51:cb:b8:fc:b3:5b:ca:04:
                    97:1f:01
                Exponent: 65537 (0x10001)
        X509v3 extensions:
            X509v3 Subject Key Identifier: 
                1D:AC:1C:79:5E:8D:1C:0B:F0:0E:68:3A:92:C5:90:D4:75:02:B6:36
            X509v3 Authority Key Identifier: 
                keyid:97:AE:90:74:57:C2:5A:59:9B:52:E8:36:CD:9C:45:EC:C8:A2:1A:7C

            X509v3 Basic Constraints: 
                CA:FALSE
            X509v3 Key Usage: 
                Digital Signature, Key Encipherment
            X509v3 Subject Alternative Name: 
                DNS:dev3
            Netscape Comment: 
                OpenSSL Generated Certificate
    Signature Algorithm: sha512WithRSAEncryption
         43:d2:64:07:62:2d:82:34:5b:1f:76:57:e3:ac:7f:c4:0a:db:
         a9:79:cb:17:8d:1e:fb:cb:1e:57:3f:71:6f:e3:6b:ae:37:74:
         47:a9:d4:0f:ef:42:80:68:76:c9:bd:a3:e0:f9:63:7b:c2:26:
         3f:4c:4f:26:c1:3c:2f:27:87:19:48:50:75:a1:a5:73:7a:18:
         4e:26:46:b1:81:cb:7c:d6:9d:b6:49:0e:50:f0:f4:35:f5:cd:
         19:da:19:5f:75:22:20:83:47:ad:09:24:ce:2a:1c:a3:a2:df:
         e9:53:4b:b5:ac:4b:6c:27:63:2a:f8:e6:55:08:f4:9c:e8:84:
         2c:a7:a6:e1:cc:f5:d4:0c:31:99:e4:d3:18:46:75:62:ab:f8:
         56:1b:c8:9a:c6:92:85:39:4c:26:e1:72:19:f8:e6:e5:71:01:
         30:02:2d:cb:d7:64:b0:f7:68:35:26:f6:7e:b3:75:80:b6:ea:
         55:bb:90:6f:20:97:88:7a:99:47:37:67:ef:42:d9:7a:0b:31:
         9b:48:70:da:33:ad:8a:6e:39:fa:f4:89:4c:0b:c1:80:fd:37:
         8f:d6:74:1e:64:f7:6f:59:a3:16:32:be:2f:6e:04:b5:91:5d:
         06:89:e4:e9:e2:46:84:82:ad:ec:98:b1:83:80:1f:7b:8c:79:
         48:42:ca:2d:9c:b0:e6:07:84:19:34:01:ad:26:0c:e8:ab:e7:
         21:da:96:f7:37:67:8f:ac:53:cf:71:d5:0a:12:c3:ad:0e:02:
         91:cc:65:b3:4e:13:d3:9a:d8:05:ad:18:a0:12:8b:39:bc:24:
         06:e9:3d:4e:34:de:b4:ff:4b:e0:61:ae:9a:12:ad:84:fe:92:
         99:38:21:f2:e4:4a:b9:d8:f7:fa:6b:eb:ac:de:7b:6c:05:2e:
         78:e4:c4:a5:54:ee:bb:37:7f:3b:aa:0d:cc:0b:b5:5c:4a:af:
         a3:82:ab:9b:fb:df:a8:05:94:d0:4a:c3:f2:89:f1:24:fe:63:
         6e:3b:75:72:63:14:45:94:08:28:b3:44:70:e4:d4:5c:86:e0:
         7b:5f:bf:56:c3:d1:bf:55:88:89:49:c7:b4:e0:6b:70:5e:64:
         6f:f2:5b:41:9e:68:d7:50:b0:0e:7c:f7:bb:4f:ba:d7:a2:d0:
         07:f9:ef:75:08:c0:10:50:db:d1:eb:83:72:d4:fa:c9:c3:7b:
         53:9b:e1:c9:34:5d:50:db:fd:fd:58:71:ee:c4:16:73:76:80:
         bf:42:dc:31:e0:8e:d4:4d:2f:c2:ac:53:6a:48:01:6d:7e:71:
         fc:75:69:47:1e:a7:1c:c5:e5:3f:ce:e8:9b:43:1e:d2:a6:35:
         bb:45:28:72:59:bf:6a:89:02:16:93:fd:2d:3d:cc:4b:b3:78:
         03:ec:21:94:20:3b:91:32:06:d3:9a:ef:05:91:12:3d:92:11:
         84:ba:8b:cf:f7:45:d1:be:e3:b8:d6:d2:6d:39:c9:e6:d7:60:
         d2:60:b6:71:c7:fa:86:39:78:74:5b:fe:56:1a:5f:5e:7e:bd:
         23:95:5a:32:1f:52:c6:6f:a4:80:f7:b7:04:58:4d:e7:b4:98:
         92:24:b6:4e:70:79:fa:04:33:d1:5a:a0:f9:08:a7:41:13:b0:
         dd:fc:96:e5:81:b0:55:bd:bf:0a:0d:72:94:bd:11:6c:3c:8d:
         66:5c:a2:42:a6:2f:59:71:37:ba:4f:6c:1c:89:1e:4d:b5:a1:
         3c:dc:5e:42:c2:9d:9a:85:5f:25:5e:d1:8d:4f:df:4e:7b:ba:
         1b:4a:4e:94:2e:94:37:ea:55:24:f4:b3:4a:41:0b:84:eb:34:
         55:66:70:46:9b:32:fe:87:4f:72:43:c8:35:70:4d:c0:85:86:
         85:15:5e:6f:d2:51:22:a4:f4:58:43:cd:a0:46:6b:f4:04:36:
         e5:e2:64:b0:fa:13:20:4d:f4:76:16:ac:1a:85:30:e5:da:61:
         91:79:5a:ab:ed:22:94:4a:df:db:fd:a9:1b:d4:fb:61:da:ed:
         4f:90:49:b3:a0:17:c8:13:19:b9:38:7a:0f:57:44:87:90:ae:
         ea:e2:36:9b:a2:8b:28:f4:42:98:27:24:f6:51:33:e9:9f:37:
         72:bc:97:52:08:9d:17:ce:61:ca:98:66:88:f2:55:34:ff:6d:
         9d:a0:b0:cf:dc:f2:cd:a9:c9:c9:fc:14:81:00:88:34:e7:31:
         68:30:9a:d5:c4:3b:13:c2:93:f0:88:e6:d6:73:45:5f:6d:58:
         2e:1a:6a:c9:be:ce:72:12:ef:46:2b:90:99:b3:51:66:05:81:
         b1:1b:a9:71:44:0f:0a:94:c9:81:7a:a1:93:8d:c6:30:31:ac:
         1e:f2:57:58:0d:29:6c:a7:7f:58:90:be:0b:f4:1e:b6:2a:7e:
         2c:7f:93:e8:f8:08:f7:c1:33:6d:1c:7e:91:b3:15:a9:54:8b:
         5d:fd:90:1a:32:85:a5:65:84:96:87:28:47:6f:ed:5a:0b:c7:
         4c:81:f2:af:c4:13:37:31:c9:40:cd:0d:ce:cf:92:1d:bd:87:
         4a:79:c1:09:38:1b:27:82:1e:fd:42:b8:f2:a7:82:fb:81:f6:
         a6:ce:2f:16:5b:e4:88:36:67:29:ad:17:09:5c:d2:7b:53:d9:
         81:c2:c8:89:0c:24:36:c3:a1:0f:33:46:8f:fe:6c:2d:a8:a3:
         67:7e:f7:09:2d:4a:46:2a:5a:b1:ba:dd:f6:ec:b6:70
-----BEGIN CERTIFICATE-----
MIIH5DCCA8ygAwIBAgIBDDANBgkqhkiG9w0BAQ0FADB3MQswCQYDVQQGEwJDQTEQ
MA4GA1UECAwHT250YXJpbzEQMA4GA1UEBwwHUnVzc2VsbDEVMBMGA1UECgwMTWls
bGVHcmlsbGVzMRIwEAYDVQQLDAlTaWduYXR1cmUxGTAXBgNVBAMMEG1pbGxlZ3Jp
bGxlcy5jb20wHhcNMTkwMTA1MTgzNjMzWhcNMjAwMTA2MTgzNjMzWjBXMQswCQYD
VQQGEwJDQTEQMA4GA1UECAwHT250YXJpbzEQMA4GA1UEBwwHUnVzc2VsbDEVMBMG
A1UECgwMTWlsbGVncmlsbGVzMQ0wCwYDVQQDDARkZXYzMIICIjANBgkqhkiG9w0B
AQEFAAOCAg8AMIICCgKCAgEA4UuqDPSy2CR6hd+CeLxgP9Ijl5ohi3lpOiQrkFoV
s6Tyy1J8hEHMxgJkOcsh3y8wIX3GfRas1aoSLsaVZXwO38oh6HOExdblSrUmlgWb
Pe78p4pOogZvUj0iyWexb+0/hnnAK2w2cPf5kI/oeEznkaJ7a4AZFeVrvl7GPkkR
yK/tkXdMR7NrftXGYi0eJAHwZ85tkhsJHPo7opUrjGpqBKktAmac7ZEnhiFRxy4L
W1MbAs9HBIUKCy6OO1s4hqmIVoskcOjCfOxwNFTN8DKQMXWm4nyanXcmBy0eTFuz
Hm175r192lv00z3FlxBdfQd4XrHSd+noIKHqz6jJKp+ucdqasfBgofIsyhP77yhR
tVCekJDWuKeo/584DRuWrDrKDgJuzQKMy9PM5MOvTdeGyX7xHiAdUmfSEBBxK4KQ
eUX7r2R10M2VaJgI36ZVQY7PR9mH4S7kyGKt7m2ILzLiE7eRbZJh2274ID6yT079
Wkzqc78IOvuNl1lnb/um9S+4l0Ve5N+MoUTjA5copyMEQjUojkukpVGWUpFeeQN1
KeZDvRciyhj7xIyfHlxoF/LzKKkHc4sJb+waoO98+VqsfX0sMrr4bbTlke2RlbJq
bXTClcScT6oVjspOfbNJSpVDneczCxyChJUsexkrFK97RlwP4p0QUcu4/LNbygSX
HwECAwEAAaOBmjCBlzAdBgNVHQ4EFgQUHawceV6NHAvwDmg6ksWQ1HUCtjYwHwYD
VR0jBBgwFoAUl66QdFfCWlmbUug2zZxF7MiiGnwwCQYDVR0TBAIwADALBgNVHQ8E
BAMCBaAwDwYDVR0RBAgwBoIEZGV2MzAsBglghkgBhvhCAQ0EHxYdT3BlblNTTCBH
ZW5lcmF0ZWQgQ2VydGlmaWNhdGUwDQYJKoZIhvcNAQENBQADggQBAEPSZAdiLYI0
Wx92V+Osf8QK26l5yxeNHvvLHlc/cW/ja643dEep1A/vQoBodsm9o+D5Y3vCJj9M
TybBPC8nhxlIUHWhpXN6GE4mRrGBy3zWnbZJDlDw9DX1zRnaGV91IiCDR60JJM4q
HKOi3+lTS7WsS2wnYyr45lUI9JzohCynpuHM9dQMMZnk0xhGdWKr+FYbyJrGkoU5
TCbhchn45uVxATACLcvXZLD3aDUm9n6zdYC26lW7kG8gl4h6mUc3Z+9C2XoLMZtI
cNozrYpuOfr0iUwLwYD9N4/WdB5k929ZoxYyvi9uBLWRXQaJ5OniRoSCreyYsYOA
H3uMeUhCyi2csOYHhBk0Aa0mDOir5yHalvc3Z4+sU89x1QoSw60OApHMZbNOE9Oa
2AWtGKASizm8JAbpPU403rT/S+BhrpoSrYT+kpk4IfLkSrnY9/pr66zee2wFLnjk
xKVU7rs3fzuqDcwLtVxKr6OCq5v736gFlNBKw/KJ8ST+Y247dXJjFEWUCCizRHDk
1FyG4Htfv1bD0b9ViIlJx7Tga3BeZG/yW0GeaNdQsA5897tPutei0Af573UIwBBQ
29Hrg3LU+snDe1Ob4ck0XVDb/f1Yce7EFnN2gL9C3DHgjtRNL8KsU2pIAW1+cfx1
aUcepxzF5T/O6JtDHtKmNbtFKHJZv2qJAhaT/S09zEuzeAPsIZQgO5EyBtOa7wWR
Ej2SEYS6i8/3RdG+47jW0m05yebXYNJgtnHH+oY5eHRb/lYaX15+vSOVWjIfUsZv
pID3twRYTee0mJIktk5wefoEM9FaoPkIp0ETsN38luWBsFW9vwoNcpS9EWw8jWZc
okKmL1lxN7pPbByJHk21oTzcXkLCnZqFXyVe0Y1P3057uhtKTpQulDfqVST0s0pB
C4TrNFVmcEabMv6HT3JDyDVwTcCFhoUVXm/SUSKk9FhDzaBGa/QENuXiZLD6EyBN
9HYWrBqFMOXaYZF5WqvtIpRK39v9qRvU+2Ha7U+QSbOgF8gTGbk4eg9XRIeQruri
Npuiiyj0QpgnJPZRM+mfN3K8l1IInRfOYcqYZojyVTT/bZ2gsM/c8s2pycn8FIEA
iDTnMWgwmtXEOxPCk/CI5tZzRV9tWC4aasm+znIS70YrkJmzUWYFgbEbqXFEDwqU
yYF6oZONxjAxrB7yV1gNKWynf1iQvgv0HrYqfix/k+j4CPfBM20cfpGzFalUi139
kBoyhaVlhJaHKEdv7VoLx0yB8q/EEzcxyUDNDc7Pkh29h0p5wQk4GyeCHv1CuPKn
gvuB9qbOLxZb5Ig2ZymtFwlc0ntT2YHCyIkMJDbDoQ8zRo/+bC2oo2d+9wktSkYq
WrG63fbstnA=
-----END CERTIFICATE-----
