Certificate:
    Data:
        Version: 3 (0x2)
        Serial Number: 13 (0xd)
    Signature Algorithm: sha512WithRSAEncryption
        Issuer: C=CA, ST=Ontario, L=Russell, O=MilleGrilles, OU=Signature, CN=millegrilles.com
        Validity
            Not Before: Jan  5 19:07:37 2019 GMT
            Not After : Jan  6 19:07:37 2020 GMT
        Subject: C=CA, ST=Ontario, L=Russell, O=Millegrilles, CN=think003.pivoine.mdugre.info
        Subject Public Key Info:
            Public Key Algorithm: rsaEncryption
                Public-Key: (4096 bit)
                Modulus:
                    00:ad:98:dd:cb:96:d2:fa:5b:4b:e8:fa:58:70:ed:
                    bc:49:a8:57:64:49:74:62:f4:10:04:a4:59:9a:e3:
                    e9:b7:d0:56:14:a7:5b:cd:8e:cf:9a:4e:68:d9:d6:
                    f0:3f:a6:90:52:af:38:b1:11:de:34:87:bd:be:df:
                    5f:55:c1:fd:f4:4f:d5:b0:86:51:7e:66:92:d2:6a:
                    8d:a7:bf:20:1f:65:4c:25:a1:57:c3:91:8e:59:35:
                    0f:62:6e:e9:9e:9b:27:12:10:df:6a:34:b8:21:b2:
                    8b:06:e8:1b:86:ab:d2:19:ea:dd:0e:aa:66:8b:09:
                    20:e2:eb:77:17:d8:f2:3b:7d:26:93:cc:58:7d:b9:
                    44:84:42:ae:1b:0f:93:7c:55:d1:b8:fc:50:64:9b:
                    fe:0f:40:b2:a2:e2:a8:49:6a:90:4a:ad:41:a2:f6:
                    80:ab:32:b9:de:10:9a:68:b3:d3:98:96:c8:da:0c:
                    ba:9b:18:da:f0:70:36:a7:a4:4a:91:a9:5c:0d:34:
                    d8:aa:b7:c5:50:9b:a5:fd:cd:78:1f:81:bc:b8:1e:
                    ee:76:be:27:4e:59:33:06:c4:ff:ad:f7:fe:ab:d3:
                    8f:a1:07:0a:1c:48:de:5d:31:41:55:cf:21:d7:26:
                    5b:db:00:c2:98:3a:73:be:48:96:9b:aa:5b:91:0b:
                    78:d0:89:e8:f4:55:7b:1c:57:8f:d3:49:58:c9:d4:
                    32:eb:d5:4c:26:5c:39:d3:83:82:d7:2f:e5:6d:f8:
                    c8:76:e2:0f:5e:08:26:89:36:23:ad:34:77:56:4c:
                    72:9c:76:86:b3:28:2b:a1:d3:a6:fb:5f:ed:a9:56:
                    21:93:85:d4:a5:76:83:ce:43:37:b8:f5:11:b4:76:
                    5c:10:3f:41:7b:70:22:9d:66:12:95:c0:60:6a:d2:
                    0f:93:c5:b4:bc:b2:b8:2b:bf:86:1e:13:d4:d5:d9:
                    6a:ed:5a:c9:c3:7b:80:91:8b:9e:a2:71:32:d2:f3:
                    b5:bb:ef:a9:79:c5:c1:46:41:09:8f:eb:fc:ba:bb:
                    b4:0d:d7:eb:ce:e4:11:d2:f4:b7:8f:7e:7f:bb:75:
                    bc:f5:90:20:00:ea:fa:35:4b:d3:5c:6c:d1:1c:e3:
                    b0:5a:a5:b5:94:67:e6:d8:f3:e6:da:c9:76:2f:27:
                    f6:bb:01:90:f5:6f:ed:d5:7f:2e:f3:07:72:a6:ad:
                    89:ae:de:f8:51:a6:df:f1:82:8f:04:e0:3e:d6:0f:
                    c4:1f:97:f6:f6:dd:19:2f:09:cf:eb:d2:fd:1e:63:
                    03:77:ff:b2:f1:15:55:d1:75:94:e6:d5:44:1f:51:
                    ea:78:04:4b:5d:25:5d:a3:f1:92:8c:65:3a:64:ee:
                    0f:c4:7d
                Exponent: 65537 (0x10001)
        X509v3 extensions:
            X509v3 Subject Key Identifier: 
                65:35:04:C2:F8:45:78:05:4E:52:D3:2D:DF:E3:92:44:8D:7E:F4:F1
            X509v3 Authority Key Identifier: 
                keyid:97:AE:90:74:57:C2:5A:59:9B:52:E8:36:CD:9C:45:EC:C8:A2:1A:7C

            X509v3 Basic Constraints: 
                CA:FALSE
            X509v3 Key Usage: 
                Digital Signature, Key Encipherment
            X509v3 Subject Alternative Name: 
                DNS:think003.pivoine.mdugre.info
            Netscape Comment: 
                OpenSSL Generated Certificate
    Signature Algorithm: sha512WithRSAEncryption
         9d:be:15:2a:7c:1a:d2:2b:5b:29:cb:26:20:62:b2:cb:33:58:
         f1:af:63:b3:69:18:f5:71:13:63:95:cb:03:90:25:ec:df:b5:
         81:5e:b2:bb:42:f1:97:24:cf:1b:8c:7e:c2:9b:70:e8:21:6a:
         df:59:06:d9:a4:71:34:47:d2:26:67:57:a5:90:65:93:2f:e8:
         0d:58:c0:7b:7f:b3:1f:b6:18:b7:8c:50:61:cf:3c:32:31:63:
         04:74:16:6b:59:fa:4f:29:fc:04:46:54:59:9f:6b:cd:91:4a:
         be:3d:3b:08:61:24:d2:9f:01:5a:56:7f:d3:ae:3f:67:2b:d3:
         1f:ba:ed:2d:24:aa:c9:a1:01:05:6d:33:12:5f:a6:c3:22:a5:
         6d:44:68:f1:b7:b0:bc:f4:a0:d8:56:6d:bd:42:a2:c3:b7:9e:
         e8:56:9c:e4:44:8a:6e:cb:b4:4c:8e:9d:e4:96:5a:00:ec:38:
         44:14:ac:99:34:b6:5f:00:7b:82:c5:f6:23:81:14:75:9b:60:
         cf:29:44:b8:f3:38:3f:fe:d1:bb:2e:67:87:12:00:94:3c:e0:
         b6:53:d7:b0:bd:fc:58:21:d7:04:8e:a0:df:54:e7:5c:86:2e:
         04:7a:c9:e3:b3:ac:5b:39:a7:e7:a9:c9:f3:56:98:c4:39:c9:
         e7:64:17:9b:47:12:50:8d:5c:22:b1:e9:32:09:b2:a3:dd:d2:
         86:7d:49:98:7f:42:b2:05:e3:3a:06:a1:86:ce:3f:ac:a7:a2:
         d2:da:ca:e8:c1:9c:64:bc:34:bc:2b:7e:c1:0b:95:82:28:16:
         9a:56:fd:c1:8b:05:b2:14:34:c0:32:4a:34:c7:d0:f6:8a:84:
         33:a4:8f:80:58:f6:e6:e0:3b:28:8a:b1:b6:53:60:15:f1:3c:
         4c:53:75:0f:10:be:72:f3:bb:a2:c8:c3:7e:53:e4:60:c7:ca:
         2b:9c:c4:26:de:60:d3:98:8c:7b:39:df:12:c3:23:f3:f5:b9:
         72:48:c2:b5:98:c6:c2:34:f7:38:97:82:5c:0e:d9:80:38:34:
         17:ad:51:af:49:a1:42:7b:bb:38:60:ae:55:6a:35:dd:a9:b9:
         01:84:ad:cc:b8:7f:dd:21:e8:d7:35:f4:4c:65:91:7f:3f:eb:
         6a:56:e3:a7:71:25:9f:d3:69:3c:e6:72:12:b1:20:ab:91:5d:
         1d:93:a7:4a:e5:0e:49:b8:98:0a:07:64:62:fa:a0:90:e4:3b:
         30:f7:17:d2:3c:93:37:17:90:34:32:63:40:3e:8d:6f:63:09:
         81:6e:0e:f4:5d:c1:bd:96:ed:4e:76:49:f5:bf:65:9b:e1:5a:
         e6:79:91:02:f2:b7:0a:c4:e8:2f:c6:e0:17:4e:fb:68:f2:f3:
         a2:7a:a0:ac:39:3d:4d:8e:49:d0:d1:c1:97:e9:85:59:d4:9f:
         a7:b5:08:c9:a8:d2:30:2e:91:fe:93:cf:7a:2f:f0:6a:92:16:
         10:b5:eb:a4:c8:63:96:56:a3:92:b6:58:65:fb:af:04:52:a3:
         dd:d6:9e:91:bd:09:fc:78:a5:68:00:1e:2f:13:c0:ca:54:c9:
         52:e0:d9:e9:fe:05:f8:a4:13:7a:58:3d:c6:8b:5e:38:90:5c:
         f2:0e:bb:99:bb:40:af:f8:bb:9f:8b:df:df:07:fa:5d:9a:3b:
         33:cd:91:b9:48:20:1f:bf:b0:03:9a:28:04:1c:b2:03:ad:92:
         65:fe:4f:22:5b:bb:7a:80:b6:3c:3b:a4:06:86:96:38:09:b6:
         3c:7c:bd:03:e0:5c:fb:c1:17:74:ed:9a:ca:69:7e:4f:f6:0b:
         cf:db:b0:58:56:21:15:41:9b:d8:cf:04:0a:c2:eb:c3:b4:d7:
         3b:48:9e:4a:f6:10:dd:4a:19:44:be:5e:07:d1:79:d4:bd:a4:
         ba:c1:51:54:7a:0a:15:8b:e9:0e:d4:a6:2c:83:fd:b6:1f:a0:
         9f:57:0b:8e:de:c2:7d:c3:c3:f4:8e:b8:d7:23:c8:38:63:7b:
         71:96:22:47:11:00:3d:5c:f0:6b:17:a7:c6:de:78:ab:10:e4:
         92:51:4c:50:16:06:67:e7:e7:49:04:95:aa:1d:96:23:d1:c5:
         4a:2d:43:ca:05:97:78:de:34:d6:7c:42:b1:86:cf:d0:a9:94:
         71:13:16:ce:51:d2:1d:cb:2f:58:93:1c:f7:6b:06:f1:71:98:
         b7:69:de:62:e4:28:93:a8:5f:56:87:d8:d7:a8:d6:b7:57:13:
         97:77:7b:01:77:a7:3b:b1:41:b6:52:bc:b5:00:bd:c7:8d:85:
         dc:dc:5c:f2:37:5b:95:b4:c7:ed:fd:b0:ef:09:4f:e4:b3:e2:
         03:4b:78:0a:57:11:51:20:48:b6:38:b0:81:5b:02:54:43:c2:
         9c:8e:02:7f:8d:83:49:58:f0:be:57:90:2d:1f:78:b0:e0:44:
         92:51:87:41:6a:55:67:41:41:53:f2:b4:68:d3:56:ec:60:63:
         82:84:13:ff:a8:a7:7d:dc:e0:10:0d:e6:28:d7:a6:ae:61:78:
         68:43:14:88:b3:df:73:1d:3e:bc:44:ab:07:2d:e1:c8:9d:3f:
         bc:2f:37:aa:ac:eb:64:58:9c:10:3c:fc:a0:5d:50:8a:b1:5a:
         fa:5d:a6:e8:f7:19:9c:51:1a:79:e9:69:5b:83:dd:37:58:8f:
         e4:54:0e:e2:47:b8:31:61:86:29:09:80:3a:5c:28:a3
-----BEGIN CERTIFICATE-----
MIIIFDCCA/ygAwIBAgIBDTANBgkqhkiG9w0BAQ0FADB3MQswCQYDVQQGEwJDQTEQ
MA4GA1UECAwHT250YXJpbzEQMA4GA1UEBwwHUnVzc2VsbDEVMBMGA1UECgwMTWls
bGVHcmlsbGVzMRIwEAYDVQQLDAlTaWduYXR1cmUxGTAXBgNVBAMMEG1pbGxlZ3Jp
bGxlcy5jb20wHhcNMTkwMTA1MTkwNzM3WhcNMjAwMTA2MTkwNzM3WjBvMQswCQYD
VQQGEwJDQTEQMA4GA1UECAwHT250YXJpbzEQMA4GA1UEBwwHUnVzc2VsbDEVMBMG
A1UECgwMTWlsbGVncmlsbGVzMSUwIwYDVQQDDBx0aGluazAwMy5waXZvaW5lLm1k
dWdyZS5pbmZvMIICIjANBgkqhkiG9w0BAQEFAAOCAg8AMIICCgKCAgEArZjdy5bS
+ltL6PpYcO28SahXZEl0YvQQBKRZmuPpt9BWFKdbzY7Pmk5o2dbwP6aQUq84sRHe
NIe9vt9fVcH99E/VsIZRfmaS0mqNp78gH2VMJaFXw5GOWTUPYm7pnpsnEhDfajS4
IbKLBugbhqvSGerdDqpmiwkg4ut3F9jyO30mk8xYfblEhEKuGw+TfFXRuPxQZJv+
D0CyouKoSWqQSq1BovaAqzK53hCaaLPTmJbI2gy6mxja8HA2p6RKkalcDTTYqrfF
UJul/c14H4G8uB7udr4nTlkzBsT/rff+q9OPoQcKHEjeXTFBVc8h1yZb2wDCmDpz
vkiWm6pbkQt40Ino9FV7HFeP00lYydQy69VMJlw504OC1y/lbfjIduIPXggmiTYj
rTR3VkxynHaGsygrodOm+1/tqVYhk4XUpXaDzkM3uPURtHZcED9Be3AinWYSlcBg
atIPk8W0vLK4K7+GHhPU1dlq7VrJw3uAkYueonEy0vO1u++pecXBRkEJj+v8uru0
DdfrzuQR0vS3j35/u3W89ZAgAOr6NUvTXGzRHOOwWqW1lGfm2PPm2sl2Lyf2uwGQ
9W/t1X8u8wdypq2Jrt74Uabf8YKPBOA+1g/EH5f29t0ZLwnP69L9HmMDd/+y8RVV
0XWU5tVEH1HqeARLXSVdo/GSjGU6ZO4PxH0CAwEAAaOBsjCBrzAdBgNVHQ4EFgQU
ZTUEwvhFeAVOUtMt3+OSRI1+9PEwHwYDVR0jBBgwFoAUl66QdFfCWlmbUug2zZxF
7MiiGnwwCQYDVR0TBAIwADALBgNVHQ8EBAMCBaAwJwYDVR0RBCAwHoIcdGhpbmsw
MDMucGl2b2luZS5tZHVncmUuaW5mbzAsBglghkgBhvhCAQ0EHxYdT3BlblNTTCBH
ZW5lcmF0ZWQgQ2VydGlmaWNhdGUwDQYJKoZIhvcNAQENBQADggQBAJ2+FSp8GtIr
WynLJiBissszWPGvY7NpGPVxE2OVywOQJezftYFesrtC8ZckzxuMfsKbcOghat9Z
BtmkcTRH0iZnV6WQZZMv6A1YwHt/sx+2GLeMUGHPPDIxYwR0FmtZ+k8p/ARGVFmf
a82RSr49OwhhJNKfAVpWf9OuP2cr0x+67S0kqsmhAQVtMxJfpsMipW1EaPG3sLz0
oNhWbb1CosO3nuhWnOREim7LtEyOneSWWgDsOEQUrJk0tl8Ae4LF9iOBFHWbYM8p
RLjzOD/+0bsuZ4cSAJQ84LZT17C9/Fgh1wSOoN9U51yGLgR6yeOzrFs5p+epyfNW
mMQ5yedkF5tHElCNXCKx6TIJsqPd0oZ9SZh/QrIF4zoGoYbOP6ynotLayujBnGS8
NLwrfsELlYIoFppW/cGLBbIUNMAySjTH0PaKhDOkj4BY9ubgOyiKsbZTYBXxPExT
dQ8QvnLzu6LIw35T5GDHyiucxCbeYNOYjHs53xLDI/P1uXJIwrWYxsI09ziXglwO
2YA4NBetUa9JoUJ7uzhgrlVqNd2puQGErcy4f90h6Nc19ExlkX8/62pW46dxJZ/T
aTzmchKxIKuRXR2Tp0rlDkm4mAoHZGL6oJDkOzD3F9I8kzcXkDQyY0A+jW9jCYFu
DvRdwb2W7U52SfW/ZZvhWuZ5kQLytwrE6C/G4BdO+2jy86J6oKw5PU2OSdDRwZfp
hVnUn6e1CMmo0jAukf6Tz3ov8GqSFhC166TIY5ZWo5K2WGX7rwRSo93WnpG9Cfx4
pWgAHi8TwMpUyVLg2en+BfikE3pYPcaLXjiQXPIOu5m7QK/4u5+L398H+l2aOzPN
kblIIB+/sAOaKAQcsgOtkmX+TyJbu3qAtjw7pAaGljgJtjx8vQPgXPvBF3Ttmspp
fk/2C8/bsFhWIRVBm9jPBArC68O01ztInkr2EN1KGUS+XgfRedS9pLrBUVR6ChWL
6Q7UpiyD/bYfoJ9XC47ewn3Dw/SOuNcjyDhje3GWIkcRAD1c8GsXp8beeKsQ5JJR
TFAWBmfn50kElaodliPRxUotQ8oFl3jeNNZ8QrGGz9CplHETFs5R0h3LL1iTHPdr
BvFxmLdp3mLkKJOoX1aH2Neo1rdXE5d3ewF3pzuxQbZSvLUAvceNhdzcXPI3W5W0
x+39sO8JT+Sz4gNLeApXEVEgSLY4sIFbAlRDwpyOAn+Ng0lY8L5XkC0feLDgRJJR
h0FqVWdBQVPytGjTVuxgY4KEE/+op33c4BAN5ijXpq5heGhDFIiz33MdPrxEqwct
4cidP7wvN6qs62RYnBA8/KBdUIqxWvpdpuj3GZxRGnnpaVuD3TdYj+RUDuJHuDFh
hikJgDpcKKM=
-----END CERTIFICATE-----
